target datalayout = "e-m:e-p270:32:32-p271:32:32-p272:64:64-i64:64-i128:128-f80:128-n8:16:32:64-S128"
target triple = "x86_64-pc-linux-gnu"

%struct.stack_st = type { i64, ptr, i64, i64, ptr }

; Function Attrs: nounwind uwtable
define hidden void @sk_free(ptr noundef %0) #0 {
  %2 = alloca ptr, align 8
  store ptr %0, ptr %2, align 8, !tbaa !10
  %3 = load ptr, ptr %2, align 8, !tbaa !10
  %4 = icmp eq ptr %3, null
  br i1 %4, label %5, label %6

5:                                                ; preds = %1
  br label %11

6:                                                ; preds = %1
  %7 = load ptr, ptr %2, align 8, !tbaa !10
  %8 = getelementptr inbounds nuw %struct.stack_st, ptr %7, i32 0, i32 1
  %9 = load ptr, ptr %8, align 8, !tbaa !12
  call void @free(ptr noundef %9) #9
  %10 = load ptr, ptr %2, align 8, !tbaa !10
  call void @free(ptr noundef %10) #9
  br label %11

11:                                               ; preds = %6, %5
  ret void
}

; Function Attrs: nounwind uwtable
define hidden ptr @sk_deep_copy(ptr noundef %0, ptr noundef %1, ptr noundef %2) #0 {
  %4 = alloca ptr, align 8
  %5 = alloca ptr, align 8
  %6 = alloca ptr, align 8
  %7 = alloca ptr, align 8
  %8 = alloca ptr, align 8
  %9 = alloca i32, align 4
  %10 = alloca i64, align 8
  %11 = alloca i64, align 8
  store ptr %0, ptr %5, align 8, !tbaa !10
  store ptr %1, ptr %6, align 8, !tbaa !6
  store ptr %2, ptr %7, align 8, !tbaa !6
  call void @llvm.lifetime.start.p0(i64 8, ptr %8) #9
  %12 = load ptr, ptr %5, align 8, !tbaa !10
  %13 = call ptr @sk_dup(ptr noundef %12)
  store ptr %13, ptr %8, align 8, !tbaa !10
  %14 = load ptr, ptr %8, align 8, !tbaa !10
  %15 = icmp eq ptr %14, null
  br i1 %15, label %16, label %17

16:                                               ; preds = %3
  store ptr null, ptr %4, align 8
  store i32 1, ptr %9, align 4
  br label %88

17:                                               ; preds = %3
  call void @llvm.lifetime.start.p0(i64 8, ptr %10) #9
  store i64 0, ptr %10, align 8, !tbaa !19
  br label %18

18:                                               ; preds = %82, %17
  %19 = load i64, ptr %10, align 8, !tbaa !19
  %20 = load ptr, ptr %8, align 8, !tbaa !10
  %21 = getelementptr inbounds nuw %struct.stack_st, ptr %20, i32 0, i32 0
  %22 = load i64, ptr %21, align 8, !tbaa !17
  %23 = icmp ult i64 %19, %22
  br i1 %23, label %24, label %85

24:                                               ; preds = %18
  %25 = load ptr, ptr %8, align 8, !tbaa !10
  %26 = getelementptr inbounds nuw %struct.stack_st, ptr %25, i32 0, i32 1
  %27 = load ptr, ptr %26, align 8, !tbaa !12
  %28 = load i64, ptr %10, align 8, !tbaa !19
  %29 = getelementptr inbounds nuw ptr, ptr %27, i64 %28
  %30 = load ptr, ptr %29, align 8, !tbaa !6
  %31 = icmp eq ptr %30, null
  br i1 %31, label %32, label %33

32:                                               ; preds = %24
  br label %82

33:                                               ; preds = %24
  %34 = load ptr, ptr %6, align 8, !tbaa !6
  %35 = load ptr, ptr %8, align 8, !tbaa !10
  %36 = getelementptr inbounds nuw %struct.stack_st, ptr %35, i32 0, i32 1
  %37 = load ptr, ptr %36, align 8, !tbaa !12
  %38 = load i64, ptr %10, align 8, !tbaa !19
  %39 = getelementptr inbounds nuw ptr, ptr %37, i64 %38
  %40 = load ptr, ptr %39, align 8, !tbaa !6
  %41 = call ptr %34(ptr noundef %40)
  %42 = load ptr, ptr %8, align 8, !tbaa !10
  %43 = getelementptr inbounds nuw %struct.stack_st, ptr %42, i32 0, i32 1
  %44 = load ptr, ptr %43, align 8, !tbaa !12
  %45 = load i64, ptr %10, align 8, !tbaa !19
  %46 = getelementptr inbounds nuw ptr, ptr %44, i64 %45
  store ptr %41, ptr %46, align 8, !tbaa !6
  %47 = load ptr, ptr %8, align 8, !tbaa !10
  %48 = getelementptr inbounds nuw %struct.stack_st, ptr %47, i32 0, i32 1
  %49 = load ptr, ptr %48, align 8, !tbaa !12
  %50 = load i64, ptr %10, align 8, !tbaa !19
  %51 = getelementptr inbounds nuw ptr, ptr %49, i64 %50
  %52 = load ptr, ptr %51, align 8, !tbaa !6
  %53 = icmp eq ptr %52, null
  br i1 %53, label %54, label %81

54:                                               ; preds = %33
  call void @llvm.lifetime.start.p0(i64 8, ptr %11) #9
  store i64 0, ptr %11, align 8, !tbaa !19
  br label %55

55:                                               ; preds = %76, %54
  %56 = load i64, ptr %11, align 8, !tbaa !19
  %57 = load i64, ptr %10, align 8, !tbaa !19
  %58 = icmp ult i64 %56, %57
  br i1 %58, label %59, label %79

59:                                               ; preds = %55
  %60 = load ptr, ptr %8, align 8, !tbaa !10
  %61 = getelementptr inbounds nuw %struct.stack_st, ptr %60, i32 0, i32 1
  %62 = load ptr, ptr %61, align 8, !tbaa !12
  %63 = load i64, ptr %11, align 8, !tbaa !19
  %64 = getelementptr inbounds nuw ptr, ptr %62, i64 %63
  %65 = load ptr, ptr %64, align 8, !tbaa !6
  %66 = icmp ne ptr %65, null
  br i1 %66, label %67, label %75

67:                                               ; preds = %59
  %68 = load ptr, ptr %7, align 8, !tbaa !6
  %69 = load ptr, ptr %8, align 8, !tbaa !10
  %70 = getelementptr inbounds nuw %struct.stack_st, ptr %69, i32 0, i32 1
  %71 = load ptr, ptr %70, align 8, !tbaa !12
  %72 = load i64, ptr %11, align 8, !tbaa !19
  %73 = getelementptr inbounds nuw ptr, ptr %71, i64 %72
  %74 = load ptr, ptr %73, align 8, !tbaa !6
  call void %68(ptr noundef %74)
  br label %75

75:                                               ; preds = %67, %59
  br label %76

76:                                               ; preds = %75
  %77 = load i64, ptr %11, align 8, !tbaa !19
  %78 = add i64 %77, 1
  store i64 %78, ptr %11, align 8, !tbaa !19
  br label %55, !llvm.loop !30

79:                                               ; preds = %55
  %80 = load ptr, ptr %8, align 8, !tbaa !10
  call void @sk_free(ptr noundef %80)
  store ptr null, ptr %4, align 8
  store i32 1, ptr %9, align 4
  call void @llvm.lifetime.end.p0(i64 8, ptr %11) #9
  br label %87

81:                                               ; preds = %33
  br label %82

82:                                               ; preds = %81, %32
  %83 = load i64, ptr %10, align 8, !tbaa !19
  %84 = add i64 %83, 1
  store i64 %84, ptr %10, align 8, !tbaa !19
  br label %18, !llvm.loop !31

85:                                               ; preds = %18
  %86 = load ptr, ptr %8, align 8, !tbaa !10
  store ptr %86, ptr %4, align 8
  store i32 1, ptr %9, align 4
  br label %87

87:                                               ; preds = %85, %79
  call void @llvm.lifetime.end.p0(i64 8, ptr %10) #9
  br label %88

88:                                               ; preds = %87, %16
  call void @llvm.lifetime.end.p0(i64 8, ptr %8) #9
  %89 = load ptr, ptr %4, align 8
  ret ptr %89
}