; Function Attrs: nounwind uwtable
define hidden noundef ptr @sk_deep_copy(ptr noundef captures(address_is_null) %0, ptr noundef readonly captures(none) %1, ptr noundef readonly captures(none) %2) local_unnamed_addr #7 {
  %4 = tail call ptr @sk_dup(ptr noundef %0)
  %5 = icmp eq ptr %4, null
  br i1 %5, label %.loopexit, label %.preheader29

.preheader29:                                     ; preds = %3
  %6 = load i64, ptr %4, align 8, !tbaa !14
  %.not34 = icmp eq i64 %6, 0
  br i1 %.not34, label %.loopexit, label %.lr.ph

.lr.ph:                                           ; preds = %.preheader29
  %7 = getelementptr inbounds nuw i8, ptr %4, i64 8
  %8 = load ptr, ptr %7, align 8, !tbaa !6
  br label %9

9:                                                ; preds = %.lr.ph, %21
  %.02431 = phi i64 [ 0, %.lr.ph ], [ %22, %21 ]
  %10 = getelementptr inbounds nuw ptr, ptr %8, i64 %.02431
  %11 = load ptr, ptr %10, align 8, !tbaa !16
  %12 = icmp eq ptr %11, null
  br i1 %12, label %21, label %13

13:                                               ; preds = %9
  %14 = tail call ptr %1(ptr noundef nonnull %11) #17
  store ptr %14, ptr %10, align 8, !tbaa !16
  %15 = icmp eq ptr %14, null
  br i1 %15, label %.preheader, label %21

.preheader:                                       ; preds = %13
  %.not35 = icmp eq i64 %.02431, 0
  br i1 %.not35, label %sk_free.exit, label %.lr.ph33

.lr.ph33:                                         ; preds = %.preheader, %19
  %.032 = phi i64 [ %20, %19 ], [ 0, %.preheader ]
  %16 = getelementptr inbounds nuw ptr, ptr %8, i64 %.032
  %17 = load ptr, ptr %16, align 8, !tbaa !16
  %.not = icmp eq ptr %17, null
  br i1 %.not, label %19, label %18

18:                                               ; preds = %.lr.ph33
  tail call void %2(ptr noundef nonnull %17) #17
  br label %19

19:                                               ; preds = %.lr.ph33, %18
  %20 = add nuw i64 %.032, 1
  %exitcond39.not = icmp eq i64 %20, %.02431
  br i1 %exitcond39.not, label %sk_free.exit, label %.lr.ph33, !llvm.loop !24

sk_free.exit:                                     ; preds = %19, %.preheader
  tail call void @free(ptr noundef nonnull %8) #17
  tail call void @free(ptr noundef nonnull %4) #17
  br label %.loopexit

21:                                               ; preds = %13, %9
  %22 = add nuw i64 %.02431, 1
  %exitcond.not = icmp eq i64 %22, %6
  br i1 %exitcond.not, label %.loopexit, label %9, !llvm.loop !25

.loopexit:                                        ; preds = %21, %.preheader29, %sk_free.exit, %3
  %.025 = phi ptr [ null, %3 ], [ null, %sk_free.exit ], [ %4, %.preheader29 ], [ %4, %21 ]
  ret ptr %.025
}